; Function Attrs: nounwind uwtable
define ptr @l_Lake_Log_filter___boxed(ptr noundef %0, ptr noundef %1) local_unnamed_addr #1 {
  %3 = getelementptr i8, ptr %1, i64 8
  %.val.i = load i64, ptr %3, align 8, !tbaa !16
  %.mask.i = and i64 %.val.i, 9223372036854775807
  %.not.i4 = icmp eq i64 %.mask.i, 0
  br i1 %.not.i4, label %lean_dec.exit24.i, label %lean_dec.exit.i

lean_dec.exit24.i:                                ; preds = %2
  %4 = ptrtoint ptr %0 to i64
  %5 = and i64 %4, 1
  %.not36.i = icmp eq i64 %5, 0
  br i1 %.not36.i, label %6, label %lean_dec.exit23.i

6:                                                ; preds = %lean_dec.exit24.i
  %7 = load i32, ptr %0, align 4, !tbaa !4
  %8 = icmp sgt i32 %7, 1
  br i1 %8, label %9, label %11, !prof !9

9:                                                ; preds = %6
  %10 = add nsw i32 %7, -1
  store i32 %10, ptr %0, align 4, !tbaa !4
  br label %lean_dec.exit23.i

11:                                               ; preds = %6
  %.not.i25.i = icmp eq i32 %7, 0
  br i1 %.not.i25.i, label %lean_dec.exit23.i, label %12

12:                                               ; preds = %11
  tail call void @lean_dec_ref_cold(ptr noundef nonnull %0) #9
  br label %lean_dec.exit23.i

lean_dec.exit23.i:                                ; preds = %12, %11, %9, %lean_dec.exit24.i
  %13 = load ptr, ptr @l___private_Lake_Util_Log_0__Lake_fromJsonLogLevel____x40_Lake_Util_Log___hyg_921____closed__1, align 8, !tbaa !10
  br label %l_Lake_Log_filter.exit

lean_dec.exit.i:                                  ; preds = %2
  %14 = load ptr, ptr @l___private_Lake_Util_Log_0__Lake_fromJsonLogLevel____x40_Lake_Util_Log___hyg_921____closed__1, align 8, !tbaa !10
  %15 = tail call ptr @l_Array_foldlMUnsafe_fold___at_Lake_Log_filter___spec__1(ptr noundef %0, ptr noundef nonnull readonly %1, i64 noundef 0, i64 noundef %.mask.i, ptr noundef %14)
  br label %l_Lake_Log_filter.exit

l_Lake_Log_filter.exit:                           ; preds = %lean_dec.exit23.i, %lean_dec.exit.i
  %.0.i = phi ptr [ %13, %lean_dec.exit23.i ], [ %15, %lean_dec.exit.i ]
  %16 = ptrtoint ptr %1 to i64
  %17 = and i64 %16, 1
  %.not = icmp eq i64 %17, 0
  br i1 %.not, label %18, label %lean_dec.exit

18:                                               ; preds = %l_Lake_Log_filter.exit
  %19 = load i32, ptr %1, align 4, !tbaa !4
  %20 = icmp sgt i32 %19, 1
  br i1 %20, label %21, label %23, !prof !9

21:                                               ; preds = %18
  %22 = add nsw i32 %19, -1
  store i32 %22, ptr %1, align 4, !tbaa !4
  br label %lean_dec.exit

23:                                               ; preds = %18
  %.not.i = icmp eq i32 %19, 0
  br i1 %.not.i, label %lean_dec.exit, label %24

24:                                               ; preds = %23
  tail call void @lean_dec_ref_cold(ptr noundef nonnull %1) #9
  br label %lean_dec.exit

lean_dec.exit:                                    ; preds = %24, %23, %21, %l_Lake_Log_filter.exit
  ret ptr %.0.i
}